; Function Attrs: mustprogress nofree norecurse nosync nounwind willreturn memory(argmem: read) uwtable
define range(i32 0, 2) i32 @ossl_quic_channel_is_term_any(ptr noundef readonly captures(none) %0) local_unnamed_addr #6 {
  %2 = getelementptr i8, ptr %0, i64 1568
  %.val = load i64, ptr %2, align 8
  %3 = and i64 %.val, 6
  %narrow.i.not = icmp eq i64 %3, 2
  %4 = and i64 %.val, 7
  %5 = icmp eq i64 %4, 4
  %narrow = or i1 %narrow.i.not, %5
  %6 = zext i1 %narrow to i32
  ret i32 %6
}